target datalayout = "e-m:e-p270:32:32-p271:32:32-p272:64:64-i64:64-i128:128-f80:128-n8:16:32:64-S128"
target triple = "x86_64-pc-linux-gnu"

%"class.std::__shared_count" = type { ptr }
%"class.std::shared_ptr" = type { %"class.std::__shared_ptr" }
%"class.std::__shared_ptr" = type { ptr, %"class.std::__shared_count" }
%"class.dropbox::oxygen::nn" = type { %"class.std::shared_ptr" }
%struct.PJ_INSERT_SESSION = type { ptr }

@_ZTISt9exception = external constant ptr
@__FUNCTION__.proj_insert_object_session_create = private unnamed_addr constant [34 x i8] c"proj_insert_object_session_create\00", align 1

; Function Attrs: mustprogress nounwind uwtable
define linkonce_odr noundef ptr @_ZNKSt12__shared_ptrIN5osgeo4proj2io15DatabaseContextELN9__gnu_cxx12_Lock_policyE2EE3getEv(ptr noundef nonnull align 8 dereferenceable(16) %0) #0 comdat align 2 {
  %2 = alloca ptr, align 8
  store ptr %0, ptr %2, align 8
  %3 = load ptr, ptr %2, align 8
  %4 = getelementptr inbounds %"class.std::__shared_ptr", ptr %3, i32 0, i32 0
  %5 = load ptr, ptr %4, align 8
  ret ptr %5
}

; Function Attrs: mustprogress nounwind uwtable
define linkonce_odr noundef ptr @_ZNKSt19__shared_ptr_accessIN5osgeo4proj2io15DatabaseContextELN9__gnu_cxx12_Lock_policyE2ELb0ELb0EE6_M_getEv(ptr noundef nonnull align 1 dereferenceable(1) %0) #0 comdat align 2 {
  %2 = alloca ptr, align 8
  store ptr %0, ptr %2, align 8
  %3 = load ptr, ptr %2, align 8
  %4 = call noundef ptr @_ZNKSt12__shared_ptrIN5osgeo4proj2io15DatabaseContextELN9__gnu_cxx12_Lock_policyE2EE3getEv(ptr noundef nonnull align 8 dereferenceable(16) %3) #19
  ret ptr %4
}

; Function Attrs: mustprogress nounwind uwtable
define linkonce_odr noundef nonnull align 8 dereferenceable(8) ptr @_ZNKSt19__shared_ptr_accessIN5osgeo4proj2io15DatabaseContextELN9__gnu_cxx12_Lock_policyE2ELb0ELb0EEdeEv(ptr noundef nonnull align 1 dereferenceable(1) %0) #0 comdat align 2 {
  %2 = alloca ptr, align 8
  store ptr %0, ptr %2, align 8
  %3 = load ptr, ptr %2, align 8
  br label %4

4:                                                ; preds = %1
  br label %5

5:                                                ; preds = %4
  br label %6

6:                                                ; preds = %5
  %7 = call noundef ptr @_ZNKSt19__shared_ptr_accessIN5osgeo4proj2io15DatabaseContextELN9__gnu_cxx12_Lock_policyE2ELb0ELb0EE6_M_getEv(ptr noundef nonnull align 1 dereferenceable(1) %3) #19
  ret ptr %7
}

; Function Attrs: mustprogress nounwind uwtable
define linkonce_odr hidden void @_ZN17PJ_INSERT_SESSIONC2Ev(ptr noundef nonnull align 8 dereferenceable(8) %0) unnamed_addr #0 comdat align 2 {
  %2 = alloca ptr, align 8
  store ptr %0, ptr %2, align 8
  %3 = load ptr, ptr %2, align 8
  %4 = getelementptr inbounds %struct.PJ_INSERT_SESSION, ptr %3, i32 0, i32 0
  store ptr null, ptr %4, align 8
  ret void
}

; Function Attrs: mustprogress nounwind uwtable
define linkonce_odr hidden noundef ptr @_ZNK7dropbox6oxygen2nnISt10shared_ptrIN5osgeo4proj2io15DatabaseContextEEEptEv(ptr noundef nonnull align 8 dereferenceable(16) %0) #0 comdat align 2 {
  %2 = alloca ptr, align 8
  store ptr %0, ptr %2, align 8
  %3 = load ptr, ptr %2, align 8
  %4 = getelementptr inbounds %"class.dropbox::oxygen::nn", ptr %3, i32 0, i32 0
  %5 = call noundef nonnull align 8 dereferenceable(8) ptr @_ZNKSt19__shared_ptr_accessIN5osgeo4proj2io15DatabaseContextELN9__gnu_cxx12_Lock_policyE2ELb0ELb0EEdeEv(ptr noundef nonnull align 1 dereferenceable(1) %4) #19
  ret ptr %5
}

; Function Attrs: mustprogress uwtable
define internal void @_ZL12getDBcontextP6pj_ctx(ptr dead_on_unwind noalias writable sret(%"class.dropbox::oxygen::nn") align 8 %0, ptr noundef %1) #2 {
  %3 = alloca ptr, align 8
  %4 = alloca ptr, align 8
  store ptr %0, ptr %3, align 8
  store ptr %1, ptr %4, align 8
  %5 = load ptr, ptr %4, align 8
  %6 = call noundef ptr @_ZN6pj_ctx15get_cpp_contextEv(ptr noundef nonnull align 8 dereferenceable(516) %5)
  call void @_ZN14projCppContext18getDatabaseContextEv(ptr dead_on_unwind writable sret(%"class.dropbox::oxygen::nn") align 8 %0, ptr noundef nonnull align 8 dereferenceable(272) %6)
  ret void
}

; Function Attrs: mustprogress uwtable
define ptr @proj_insert_object_session_create(ptr noundef %0) #2 personality ptr @__gxx_personality_v0 {
  %2 = alloca ptr, align 8
  %3 = alloca ptr, align 8
  %4 = alloca %"class.dropbox::oxygen::nn", align 8
  %5 = alloca ptr, align 8
  %6 = alloca i32, align 4
  %7 = alloca ptr, align 8
  %8 = alloca ptr, align 8
  store ptr %0, ptr %3, align 8
  br label %9

9:                                                ; preds = %1
  %10 = load ptr, ptr %3, align 8
  %11 = icmp eq ptr %10, null
  br i1 %11, label %12, label %14

12:                                               ; preds = %9
  %13 = call noundef ptr @_Z18pj_get_default_ctxv()
  store ptr %13, ptr %3, align 8
  br label %14

14:                                               ; preds = %12, %9
  br label %15

15:                                               ; preds = %14
  %16 = load ptr, ptr %3, align 8
  invoke void @_ZL12getDBcontextP6pj_ctx(ptr dead_on_unwind writable sret(%"class.dropbox::oxygen::nn") align 8 %4, ptr noundef %16)
          to label %17 unwind label %27

17:                                               ; preds = %15
  %18 = invoke noundef ptr @_ZNK7dropbox6oxygen2nnISt10shared_ptrIN5osgeo4proj2io15DatabaseContextEEEptEv(ptr noundef nonnull align 8 dereferenceable(16) %4)
          to label %19 unwind label %31

19:                                               ; preds = %17
  invoke void @_ZN5osgeo4proj2io15DatabaseContext28startInsertStatementsSessionEv(ptr noundef nonnull align 8 dereferenceable(8) %18)
          to label %20 unwind label %31

20:                                               ; preds = %19
  %21 = invoke noalias noundef nonnull ptr @_Znwm(i64 noundef 8) #22
          to label %22 unwind label %31

22:                                               ; preds = %20
  call void @_ZN17PJ_INSERT_SESSIONC2Ev(ptr noundef nonnull align 8 dereferenceable(8) %21) #19
  store ptr %21, ptr %7, align 8
  %23 = load ptr, ptr %3, align 8
  %24 = load ptr, ptr %7, align 8
  %25 = getelementptr inbounds %struct.PJ_INSERT_SESSION, ptr %24, i32 0, i32 0
  store ptr %23, ptr %25, align 8
  %26 = load ptr, ptr %7, align 8
  store ptr %26, ptr %2, align 8
  call void @_ZN7dropbox6oxygen2nnISt10shared_ptrIN5osgeo4proj2io15DatabaseContextEEED2Ev(ptr noundef nonnull align 8 dereferenceable(16) %4) #19
  br label %55

27:                                               ; preds = %15
  %28 = landingpad { ptr, i32 }
          catch ptr @_ZTISt9exception
  %29 = extractvalue { ptr, i32 } %28, 0
  store ptr %29, ptr %5, align 8
  %30 = extractvalue { ptr, i32 } %28, 1
  store i32 %30, ptr %6, align 4
  br label %35

31:                                               ; preds = %20, %19, %17
  %32 = landingpad { ptr, i32 }
          cleanup
          catch ptr @_ZTISt9exception
  %33 = extractvalue { ptr, i32 } %32, 0
  store ptr %33, ptr %5, align 8
  %34 = extractvalue { ptr, i32 } %32, 1
  store i32 %34, ptr %6, align 4
  call void @_ZN7dropbox6oxygen2nnISt10shared_ptrIN5osgeo4proj2io15DatabaseContextEEED2Ev(ptr noundef nonnull align 8 dereferenceable(16) %4) #19
  br label %35

35:                                               ; preds = %31, %27
  %36 = load i32, ptr %6, align 4
  %37 = call i32 @llvm.eh.typeid.for(ptr @_ZTISt9exception) #19
  %38 = icmp eq i32 %36, %37
  br i1 %38, label %39, label %57

39:                                               ; preds = %35
  %40 = load ptr, ptr %5, align 8
  %41 = call ptr @__cxa_begin_catch(ptr %40) #19
  store ptr %41, ptr %8, align 8
  %42 = load ptr, ptr %3, align 8
  %43 = load ptr, ptr %8, align 8
  %44 = load ptr, ptr %43, align 8
  %45 = getelementptr inbounds ptr, ptr %44, i64 2
  %46 = load ptr, ptr %45, align 8
  %47 = call noundef ptr %46(ptr noundef nonnull align 8 dereferenceable(8) %43) #19
  invoke void @_ZL14proj_log_errorP6pj_ctxPKcS2_(ptr noundef %42, ptr noundef @__FUNCTION__.proj_insert_object_session_create, ptr noundef %47)
          to label %48 unwind label %49

48:                                               ; preds = %39
  store ptr null, ptr %2, align 8
  call void @__cxa_end_catch()
  br label %55

49:                                               ; preds = %39
  %50 = landingpad { ptr, i32 }
          cleanup
  %51 = extractvalue { ptr, i32 } %50, 0
  store ptr %51, ptr %5, align 8
  %52 = extractvalue { ptr, i32 } %50, 1
  store i32 %52, ptr %6, align 4
  invoke void @__cxa_end_catch()
          to label %53 unwind label %62

53:                                               ; preds = %49
  br label %57

54:                                               ; No predecessors!
  call void @llvm.trap()
  unreachable

55:                                               ; preds = %48, %22
  %56 = load ptr, ptr %2, align 8
  ret ptr %56

57:                                               ; preds = %53, %35
  %58 = load ptr, ptr %5, align 8
  %59 = load i32, ptr %6, align 4
  %60 = insertvalue { ptr, i32 } poison, ptr %58, 0
  %61 = insertvalue { ptr, i32 } %60, i32 %59, 1
  resume { ptr, i32 } %61

62:                                               ; preds = %49
  %63 = landingpad { ptr, i32 }
          catch ptr null
  %64 = extractvalue { ptr, i32 } %63, 0
  call void @__clang_call_terminate(ptr %64) #21
  unreachable
}