; Function Attrs: mustprogress uwtable
define noundef ptr @proj_insert_object_session_create(ptr noundef %0) local_unnamed_addr #2 personality ptr @__gxx_personality_v0 {
  %2 = alloca %"class.dropbox::oxygen::nn", align 8
  %3 = icmp eq ptr %0, null
  br i1 %3, label %4, label %6

4:                                                ; preds = %1
  %5 = tail call noundef ptr @_Z18pj_get_default_ctxv()
  br label %6

6:                                                ; preds = %1, %4
  %.011 = phi ptr [ %5, %4 ], [ %0, %1 ]
  %7 = invoke noundef ptr @_ZN6pj_ctx15get_cpp_contextEv(ptr noundef nonnull align 8 dereferenceable(516) %.011)
          to label %.noexc unwind label %48

.noexc:                                           ; preds = %6
  invoke void @_ZN14projCppContext18getDatabaseContextEv(ptr dead_on_unwind nonnull writable sret(%"class.dropbox::oxygen::nn") align 8 %2, ptr noundef nonnull align 8 dereferenceable(272) %7)
          to label %_ZL12getDBcontextP6pj_ctx.exit unwind label %48

_ZL12getDBcontextP6pj_ctx.exit:                   ; preds = %.noexc
  %8 = load ptr, ptr %2, align 8
  invoke void @_ZN5osgeo4proj2io15DatabaseContext28startInsertStatementsSessionEv(ptr noundef nonnull align 8 dereferenceable(8) %8)
          to label %9 unwind label %50

9:                                                ; preds = %_ZL12getDBcontextP6pj_ctx.exit
  %10 = invoke noalias noundef nonnull dereferenceable(8) ptr @_Znwm(i64 noundef 8) #30
          to label %11 unwind label %50

11:                                               ; preds = %9
  store ptr %.011, ptr %10, align 8
  %12 = getelementptr inbounds i8, ptr %2, i64 8
  %13 = load ptr, ptr %12, align 8
  %.not.i.i.i.i = icmp eq ptr %13, null
  br i1 %.not.i.i.i.i, label %_ZN7dropbox6oxygen2nnISt10shared_ptrIN5osgeo4proj2io15DatabaseContextEEED2Ev.exit, label %14

14:                                               ; preds = %11
  %15 = getelementptr inbounds i8, ptr %13, i64 8
  %16 = load atomic i64, ptr %15 acquire, align 8
  %17 = icmp eq i64 %16, 4294967297
  %18 = trunc i64 %16 to i32
  br i1 %17, label %19, label %24

19:                                               ; preds = %14
  store i32 0, ptr %15, align 8
  %20 = getelementptr inbounds i8, ptr %13, i64 12
  store i32 0, ptr %20, align 4
  %21 = load ptr, ptr %13, align 8
  %22 = getelementptr inbounds i8, ptr %21, i64 16
  %23 = load ptr, ptr %22, align 8
  call void %23(ptr noundef nonnull align 8 dereferenceable(16) %13) #27
  br label %_ZNSt16_Sp_counted_baseILN9__gnu_cxx12_Lock_policyE2EE24_M_release_last_use_coldEv.exit.sink.split.i.i.i.i.i

24:                                               ; preds = %14
  %25 = load i8, ptr @__libc_single_threaded, align 1
  %.not.i.i.i.i.i = icmp eq i8 %25, 0
  br i1 %.not.i.i.i.i.i, label %28, label %26

26:                                               ; preds = %24
  %27 = add nsw i32 %18, -1
  store i32 %27, ptr %15, align 4
  br label %30

28:                                               ; preds = %24
  %29 = atomicrmw volatile add ptr %15, i32 -1 acq_rel, align 4
  br label %30

30:                                               ; preds = %28, %26
  %.0.i.i.i.i.i = phi i32 [ %18, %26 ], [ %29, %28 ]
  %31 = icmp eq i32 %.0.i.i.i.i.i, 1
  br i1 %31, label %32, label %_ZN7dropbox6oxygen2nnISt10shared_ptrIN5osgeo4proj2io15DatabaseContextEEED2Ev.exit

32:                                               ; preds = %30
  %33 = load ptr, ptr %13, align 8
  %34 = getelementptr inbounds i8, ptr %33, i64 16
  %35 = load ptr, ptr %34, align 8
  call void %35(ptr noundef nonnull align 8 dereferenceable(16) %13) #27
  %36 = getelementptr inbounds i8, ptr %13, i64 12
  %37 = load i8, ptr @__libc_single_threaded, align 1
  %.not.i.i.i.i.i.i.i = icmp eq i8 %37, 0
  br i1 %.not.i.i.i.i.i.i.i, label %41, label %38

38:                                               ; preds = %32
  %39 = load i32, ptr %36, align 4
  %40 = add nsw i32 %39, -1
  store i32 %40, ptr %36, align 4
  br label %43

41:                                               ; preds = %32
  %42 = atomicrmw volatile add ptr %36, i32 -1 acq_rel, align 4
  br label %43

43:                                               ; preds = %41, %38
  %.0.i.i.i.i.i.i.i = phi i32 [ %39, %38 ], [ %42, %41 ]
  %44 = icmp eq i32 %.0.i.i.i.i.i.i.i, 1
  br i1 %44, label %_ZNSt16_Sp_counted_baseILN9__gnu_cxx12_Lock_policyE2EE24_M_release_last_use_coldEv.exit.sink.split.i.i.i.i.i, label %_ZN7dropbox6oxygen2nnISt10shared_ptrIN5osgeo4proj2io15DatabaseContextEEED2Ev.exit

_ZNSt16_Sp_counted_baseILN9__gnu_cxx12_Lock_policyE2EE24_M_release_last_use_coldEv.exit.sink.split.i.i.i.i.i: ; preds = %43, %19
  %45 = load ptr, ptr %13, align 8
  %46 = getelementptr inbounds i8, ptr %45, i64 24
  %47 = load ptr, ptr %46, align 8
  call void %47(ptr noundef nonnull align 8 dereferenceable(16) %13) #27
  br label %_ZN7dropbox6oxygen2nnISt10shared_ptrIN5osgeo4proj2io15DatabaseContextEEED2Ev.exit

48:                                               ; preds = %.noexc, %6
  %49 = landingpad { ptr, i32 }
          catch ptr @_ZTISt9exception
  br label %52

50:                                               ; preds = %9, %_ZL12getDBcontextP6pj_ctx.exit
  %51 = landingpad { ptr, i32 }
          cleanup
          catch ptr @_ZTISt9exception
  call void @_ZN7dropbox6oxygen2nnISt10shared_ptrIN5osgeo4proj2io15DatabaseContextEEED2Ev(ptr noundef nonnull align 8 dereferenceable(16) %2) #27
  br label %52

52:                                               ; preds = %50, %48
  %.pn = phi { ptr, i32 } [ %51, %50 ], [ %49, %48 ]
  %.012 = extractvalue { ptr, i32 } %.pn, 1
  %53 = call i32 @llvm.eh.typeid.for(ptr nonnull @_ZTISt9exception) #27
  %54 = icmp eq i32 %.012, %53
  br i1 %54, label %55, label %64

55:                                               ; preds = %52
  %.013 = extractvalue { ptr, i32 } %.pn, 0
  %56 = call ptr @__cxa_begin_catch(ptr %.013) #27
  %57 = load ptr, ptr %56, align 8
  %58 = getelementptr inbounds i8, ptr %57, i64 16
  %59 = load ptr, ptr %58, align 8
  %60 = call noundef ptr %59(ptr noundef nonnull align 8 dereferenceable(8) %56) #27
  invoke fastcc void @_ZL14proj_log_errorP6pj_ctxPKcS2_(ptr noundef %.011, ptr noundef nonnull @__FUNCTION__.proj_insert_object_session_create, ptr noundef %60)
          to label %61 unwind label %62

61:                                               ; preds = %55
  call void @__cxa_end_catch()
  br label %_ZN7dropbox6oxygen2nnISt10shared_ptrIN5osgeo4proj2io15DatabaseContextEEED2Ev.exit

62:                                               ; preds = %55
  %63 = landingpad { ptr, i32 }
          cleanup
  invoke void @__cxa_end_catch()
          to label %64 unwind label %65

_ZN7dropbox6oxygen2nnISt10shared_ptrIN5osgeo4proj2io15DatabaseContextEEED2Ev.exit: ; preds = %_ZNSt16_Sp_counted_baseILN9__gnu_cxx12_Lock_policyE2EE24_M_release_last_use_coldEv.exit.sink.split.i.i.i.i.i, %43, %30, %11, %61
  %.0 = phi ptr [ null, %61 ], [ %10, %11 ], [ %10, %30 ], [ %10, %43 ], [ %10, %_ZNSt16_Sp_counted_baseILN9__gnu_cxx12_Lock_policyE2EE24_M_release_last_use_coldEv.exit.sink.split.i.i.i.i.i ]
  ret ptr %.0

64:                                               ; preds = %62, %52
  %.merged = phi { ptr, i32 } [ %63, %62 ], [ %.pn, %52 ]
  resume { ptr, i32 } %.merged

65:                                               ; preds = %62
  %66 = landingpad { ptr, i32 }
          catch ptr null
  %67 = extractvalue { ptr, i32 } %66, 0
  call void @__clang_call_terminate(ptr %67) #31
  unreachable
}